target datalayout = "e-m:e-p270:32:32-p271:32:32-p272:64:64-i64:64-i128:128-f80:128-n8:16:32:64-S128"
target triple = "x86_64-pc-linux-gnu"

%struct.nstime_t = type { i64, i32 }
%struct._packet_info = type { ptr, ptr, i32, i32, %struct.nstime_t, %struct.nstime_t, %struct.nstime_t, i32, ptr, ptr, ptr, ptr, %struct._address, %struct._address, %struct._address, %struct._address, %struct._address, %struct._address, i32, ptr, i32, %struct.anon.0, i32, i32, i32, i32, ptr, i32, ptr, ptr, i16, i16, i32, i32, i16, i32, i32, ptr, ptr, ptr, i8, i8, i16, i16, i16, i32, i16, i16, ptr, ptr, ptr, ptr, ptr, i32 }
%struct._address = type { i32, i32, ptr, ptr }
%struct.anon.0 = type { i8, [3 x i8] }
%struct.mbim_pair_list = type { i32, i32 }

@hf_mbim_ms_sar_config_sar_mode = internal global i32 0, align 4
@hf_mbim_ms_sar_config_sar_backoff_status = internal global i32 0, align 4
@hf_mbim_ms_sar_config_sar_wifi_Integration = internal global i32 0, align 4
@hf_mbim_ms_sar_config_element_count = internal global i32 0, align 4
@hf_mbim_ms_sar_config_element_offset = internal global i32 0, align 4
@hf_mbim_ms_sar_config_element_size = internal global i32 0, align 4
@hf_mbim_ms_sar_config_state_sar_antenna_index = internal global i32 0, align 4
@hf_mbim_ms_sar_config_state_sar_backoff_index = internal global i32 0, align 4
@ett_mbim_pair_list = internal global i32 0, align 4
@.str.2580 = private unnamed_addr constant [22 x i8] c"SAR Config State List\00", align 1
@.str.2581 = private unnamed_addr constant [21 x i8] c"SAR Config State #%u\00", align 1

; Function Attrs: nounwind uwtable
define internal void @mbim_dissect_ms_sar_config_state(ptr noundef %0, ptr noundef %1, i32 noundef %2) #0 {
  %4 = alloca ptr, align 8
  %5 = alloca ptr, align 8
  %6 = alloca i32, align 4
  store ptr %0, ptr %4, align 8
  store ptr %1, ptr %5, align 8
  store i32 %2, ptr %6, align 4
  %7 = load ptr, ptr %5, align 8
  %8 = load i32, ptr @hf_mbim_ms_sar_config_state_sar_antenna_index, align 4
  %9 = load ptr, ptr %4, align 8
  %10 = load i32, ptr %6, align 4
  %11 = call ptr @proto_tree_add_item(ptr noundef %7, i32 noundef %8, ptr noundef %9, i32 noundef %10, i32 noundef 4, i32 noundef -2147483648)
  %12 = load i32, ptr %6, align 4
  %13 = add i32 %12, 4
  store i32 %13, ptr %6, align 4
  %14 = load ptr, ptr %5, align 8
  %15 = load i32, ptr @hf_mbim_ms_sar_config_state_sar_backoff_index, align 4
  %16 = load ptr, ptr %4, align 8
  %17 = load i32, ptr %6, align 4
  %18 = call ptr @proto_tree_add_item(ptr noundef %14, i32 noundef %15, ptr noundef %16, i32 noundef %17, i32 noundef 4, i32 noundef -2147483648)
  ret void
}

; Function Attrs: nounwind uwtable
define internal void @mbim_dissect_ms_sar_config(ptr noundef %0, ptr noundef %1, ptr noundef %2, i32 noundef %3, i32 noundef %4) #0 {
  %6 = alloca ptr, align 8
  %7 = alloca ptr, align 8
  %8 = alloca ptr, align 8
  %9 = alloca i32, align 4
  %10 = alloca i32, align 4
  %11 = alloca ptr, align 8
  %12 = alloca i32, align 4
  %13 = alloca i32, align 4
  %14 = alloca ptr, align 8
  %15 = alloca %struct.mbim_pair_list, align 4
  %16 = alloca ptr, align 8
  %17 = alloca i32, align 4
  store ptr %0, ptr %6, align 8
  store ptr %1, ptr %7, align 8
  store ptr %2, ptr %8, align 8
  store i32 %3, ptr %9, align 4
  store i32 %4, ptr %10, align 4
  %18 = load i32, ptr %9, align 4
  store i32 %18, ptr %17, align 4
  %19 = load ptr, ptr %8, align 8
  %20 = load i32, ptr @hf_mbim_ms_sar_config_sar_mode, align 4
  %21 = load ptr, ptr %6, align 8
  %22 = load i32, ptr %9, align 4
  %23 = call ptr @proto_tree_add_item(ptr noundef %19, i32 noundef %20, ptr noundef %21, i32 noundef %22, i32 noundef 4, i32 noundef -2147483648)
  %24 = load i32, ptr %9, align 4
  %25 = add i32 %24, 4
  store i32 %25, ptr %9, align 4
  %26 = load ptr, ptr %8, align 8
  %27 = load i32, ptr @hf_mbim_ms_sar_config_sar_backoff_status, align 4
  %28 = load ptr, ptr %6, align 8
  %29 = load i32, ptr %9, align 4
  %30 = call ptr @proto_tree_add_item(ptr noundef %26, i32 noundef %27, ptr noundef %28, i32 noundef %29, i32 noundef 4, i32 noundef -2147483648)
  %31 = load i32, ptr %9, align 4
  %32 = add i32 %31, 4
  store i32 %32, ptr %9, align 4
  %33 = load i32, ptr %10, align 4
  %34 = icmp ne i32 %33, 0
  br i1 %34, label %35, label %43

35:                                               ; preds = %5
  %36 = load ptr, ptr %8, align 8
  %37 = load i32, ptr @hf_mbim_ms_sar_config_sar_wifi_Integration, align 4
  %38 = load ptr, ptr %6, align 8
  %39 = load i32, ptr %9, align 4
  %40 = call ptr @proto_tree_add_item(ptr noundef %36, i32 noundef %37, ptr noundef %38, i32 noundef %39, i32 noundef 4, i32 noundef -2147483648)
  %41 = load i32, ptr %9, align 4
  %42 = add i32 %41, 4
  store i32 %42, ptr %9, align 4
  br label %43

43:                                               ; preds = %35, %5
  %44 = load ptr, ptr %8, align 8
  %45 = load i32, ptr @hf_mbim_ms_sar_config_element_count, align 4
  %46 = load ptr, ptr %6, align 8
  %47 = load i32, ptr %9, align 4
  %48 = call ptr @proto_tree_add_item_ret_uint(ptr noundef %44, i32 noundef %45, ptr noundef %46, i32 noundef %47, i32 noundef 4, i32 noundef -2147483648, ptr noundef %13)
  %49 = load i32, ptr %9, align 4
  %50 = add i32 %49, 4
  store i32 %50, ptr %9, align 4
  %51 = load i32, ptr %13, align 4
  %52 = icmp ne i32 %51, 0
  br i1 %52, label %53, label %135

53:                                               ; preds = %43
  %54 = load ptr, ptr %7, align 8
  %55 = getelementptr inbounds %struct._packet_info, ptr %54, i32 0, i32 50
  %56 = load ptr, ptr %55, align 8
  %57 = call noalias ptr @wmem_array_new(ptr noundef %56, i64 noundef 8)
  store ptr %57, ptr %14, align 8
  %58 = load ptr, ptr %8, align 8
  %59 = load ptr, ptr %6, align 8
  %60 = load i32, ptr %9, align 4
  %61 = load i32, ptr %13, align 4
  %62 = mul i32 8, %61
  %63 = load i32, ptr @ett_mbim_pair_list, align 4
  %64 = call ptr @proto_tree_add_subtree(ptr noundef %58, ptr noundef %59, i32 noundef %60, i32 noundef %62, i32 noundef %63, ptr noundef null, ptr noundef @.str.2580)
  store ptr %64, ptr %11, align 8
  store i32 0, ptr %12, align 4
  br label %65

65:                                               ; preds = %87, %53
  %66 = load i32, ptr %12, align 4
  %67 = load i32, ptr %13, align 4
  %68 = icmp ult i32 %66, %67
  br i1 %68, label %69, label %90

69:                                               ; preds = %65
  %70 = load ptr, ptr %11, align 8
  %71 = load i32, ptr @hf_mbim_ms_sar_config_element_offset, align 4
  %72 = load ptr, ptr %6, align 8
  %73 = load i32, ptr %9, align 4
  %74 = getelementptr inbounds %struct.mbim_pair_list, ptr %15, i32 0, i32 0
  %75 = call ptr @proto_tree_add_item_ret_uint(ptr noundef %70, i32 noundef %71, ptr noundef %72, i32 noundef %73, i32 noundef 4, i32 noundef -2147483648, ptr noundef %74)
  %76 = load i32, ptr %9, align 4
  %77 = add i32 %76, 4
  store i32 %77, ptr %9, align 4
  %78 = load ptr, ptr %11, align 8
  %79 = load i32, ptr @hf_mbim_ms_sar_config_element_size, align 4
  %80 = load ptr, ptr %6, align 8
  %81 = load i32, ptr %9, align 4
  %82 = getelementptr inbounds %struct.mbim_pair_list, ptr %15, i32 0, i32 1
  %83 = call ptr @proto_tree_add_item_ret_uint(ptr noundef %78, i32 noundef %79, ptr noundef %80, i32 noundef %81, i32 noundef 4, i32 noundef -2147483648, ptr noundef %82)
  %84 = load i32, ptr %9, align 4
  %85 = add i32 %84, 4
  store i32 %85, ptr %9, align 4
  %86 = load ptr, ptr %14, align 8
  call void @wmem_array_append(ptr noundef %86, ptr noundef %15, i32 noundef 1)
  br label %87

87:                                               ; preds = %69
  %88 = load i32, ptr %12, align 4
  %89 = add i32 %88, 1
  store i32 %89, ptr %12, align 4
  br label %65, !llvm.loop !26

90:                                               ; preds = %65
  store i32 0, ptr %12, align 4
  br label %91

91:                                               ; preds = %131, %90
  %92 = load i32, ptr %12, align 4
  %93 = load i32, ptr %13, align 4
  %94 = icmp ult i32 %92, %93
  br i1 %94, label %95, label %134

95:                                               ; preds = %91
  %96 = load ptr, ptr %14, align 8
  %97 = load i32, ptr %12, align 4
  %98 = call ptr @wmem_array_index(ptr noundef %96, i32 noundef %97)
  store ptr %98, ptr %16, align 8
  %99 = load ptr, ptr %16, align 8
  %100 = getelementptr inbounds %struct.mbim_pair_list, ptr %99, i32 0, i32 0
  %101 = load i32, ptr %100, align 4
  %102 = icmp ne i32 %101, 0
  br i1 %102, label %103, label %130

103:                                              ; preds = %95
  %104 = load ptr, ptr %16, align 8
  %105 = getelementptr inbounds %struct.mbim_pair_list, ptr %104, i32 0, i32 1
  %106 = load i32, ptr %105, align 4
  %107 = icmp ne i32 %106, 0
  br i1 %107, label %108, label %130

108:                                              ; preds = %103
  %109 = load ptr, ptr %8, align 8
  %110 = load ptr, ptr %6, align 8
  %111 = load i32, ptr %17, align 4
  %112 = load ptr, ptr %16, align 8
  %113 = getelementptr inbounds %struct.mbim_pair_list, ptr %112, i32 0, i32 0
  %114 = load i32, ptr %113, align 4
  %115 = add i32 %111, %114
  %116 = load ptr, ptr %16, align 8
  %117 = getelementptr inbounds %struct.mbim_pair_list, ptr %116, i32 0, i32 1
  %118 = load i32, ptr %117, align 4
  %119 = load i32, ptr @ett_mbim_pair_list, align 4
  %120 = load i32, ptr %12, align 4
  %121 = add i32 %120, 1
  %122 = call ptr (ptr, ptr, i32, i32, i32, ptr, ptr, ...) @proto_tree_add_subtree_format(ptr noundef %109, ptr noundef %110, i32 noundef %115, i32 noundef %118, i32 noundef %119, ptr noundef null, ptr noundef @.str.2581, i32 noundef %121)
  store ptr %122, ptr %11, align 8
  %123 = load ptr, ptr %6, align 8
  %124 = load ptr, ptr %11, align 8
  %125 = load i32, ptr %17, align 4
  %126 = load ptr, ptr %16, align 8
  %127 = getelementptr inbounds %struct.mbim_pair_list, ptr %126, i32 0, i32 0
  %128 = load i32, ptr %127, align 4
  %129 = add i32 %125, %128
  call void @mbim_dissect_ms_sar_config_state(ptr noundef %123, ptr noundef %124, i32 noundef %129)
  br label %130

130:                                              ; preds = %108, %103, %95
  br label %131

131:                                              ; preds = %130
  %132 = load i32, ptr %12, align 4
  %133 = add i32 %132, 1
  store i32 %133, ptr %12, align 4
  br label %91, !llvm.loop !27

134:                                              ; preds = %91
  br label %135

135:                                              ; preds = %134, %43
  ret void
}