; Function Attrs: nounwind uwtable
define internal fastcc void @mbim_dissect_ms_sar_config(ptr noundef %0, ptr noundef readonly captures(none) %1, ptr noundef %2, i32 noundef %3, i32 noundef range(i32 0, 2) %4) unnamed_addr #0 {
  %6 = alloca i32, align 4
  %7 = alloca %struct.mbim_pair_list, align 4
  %8 = load i32, ptr @hf_mbim_ms_sar_config_sar_mode, align 4
  %9 = tail call ptr @proto_tree_add_item(ptr noundef %2, i32 noundef %8, ptr noundef %0, i32 noundef %3, i32 noundef 4, i32 noundef -2147483648) #10
  %10 = add i32 %3, 4
  %11 = load i32, ptr @hf_mbim_ms_sar_config_sar_backoff_status, align 4
  %12 = tail call ptr @proto_tree_add_item(ptr noundef %2, i32 noundef %11, ptr noundef %0, i32 noundef %10, i32 noundef 4, i32 noundef -2147483648) #10
  %13 = add i32 %3, 8
  %.not = icmp eq i32 %4, 0
  br i1 %.not, label %18, label %14

14:                                               ; preds = %5
  %15 = load i32, ptr @hf_mbim_ms_sar_config_sar_wifi_Integration, align 4
  %16 = tail call ptr @proto_tree_add_item(ptr noundef %2, i32 noundef %15, ptr noundef %0, i32 noundef %13, i32 noundef 4, i32 noundef -2147483648) #10
  %17 = add i32 %3, 12
  br label %18

18:                                               ; preds = %14, %5
  %.0 = phi i32 [ %17, %14 ], [ %13, %5 ]
  %19 = load i32, ptr @hf_mbim_ms_sar_config_element_count, align 4
  %20 = call ptr @proto_tree_add_item_ret_uint(ptr noundef %2, i32 noundef %19, ptr noundef %0, i32 noundef %.0, i32 noundef 4, i32 noundef -2147483648, ptr noundef nonnull %6) #10
  %21 = load i32, ptr %6, align 4
  %.not52 = icmp eq i32 %21, 0
  br i1 %.not52, label %.loopexit, label %22

22:                                               ; preds = %18
  %23 = add i32 %.0, 4
  %24 = getelementptr inbounds nuw i8, ptr %1, i64 408
  %25 = load ptr, ptr %24, align 8
  %26 = call noalias ptr @wmem_array_new(ptr noundef %25, i64 noundef 8) #10
  %27 = load i32, ptr %6, align 4
  %28 = shl i32 %27, 3
  %29 = load i32, ptr @ett_mbim_pair_list, align 4
  %30 = call ptr @proto_tree_add_subtree(ptr noundef %2, ptr noundef %0, i32 noundef %23, i32 noundef %28, i32 noundef %29, ptr noundef null, ptr noundef nonnull @.str.2580) #10
  %31 = load i32, ptr %6, align 4
  %.not59 = icmp eq i32 %31, 0
  br i1 %.not59, label %.loopexit, label %.lr.ph

.lr.ph:                                           ; preds = %22
  %32 = getelementptr inbounds nuw i8, ptr %7, i64 4
  br label %34

.preheader:                                       ; preds = %34
  %33 = icmp eq i32 %42, 0
  br i1 %33, label %.loopexit, label %.lr.ph58

34:                                               ; preds = %.lr.ph, %34
  %.156 = phi i32 [ %23, %.lr.ph ], [ %40, %34 ]
  %.04855 = phi i32 [ 0, %.lr.ph ], [ %41, %34 ]
  %35 = load i32, ptr @hf_mbim_ms_sar_config_element_offset, align 4
  %36 = call ptr @proto_tree_add_item_ret_uint(ptr noundef %30, i32 noundef %35, ptr noundef %0, i32 noundef %.156, i32 noundef 4, i32 noundef -2147483648, ptr noundef nonnull %7) #10
  %37 = add i32 %.156, 4
  %38 = load i32, ptr @hf_mbim_ms_sar_config_element_size, align 4
  %39 = call ptr @proto_tree_add_item_ret_uint(ptr noundef %30, i32 noundef %38, ptr noundef %0, i32 noundef %37, i32 noundef 4, i32 noundef -2147483648, ptr noundef nonnull %32) #10
  %40 = add i32 %.156, 8
  call void @wmem_array_append(ptr noundef %26, ptr noundef nonnull %7, i32 noundef 1) #10
  %41 = add nuw i32 %.04855, 1
  %42 = load i32, ptr %6, align 4
  %43 = icmp ult i32 %41, %42
  br i1 %43, label %34, label %.preheader, !llvm.loop !29

.lr.ph58:                                         ; preds = %.preheader, %60
  %.14957 = phi i32 [ %61, %60 ], [ 0, %.preheader ]
  %44 = call ptr @wmem_array_index(ptr noundef %26, i32 noundef %.14957) #10
  %45 = load i32, ptr %44, align 4
  %.not53 = icmp eq i32 %45, 0
  br i1 %.not53, label %60, label %46

46:                                               ; preds = %.lr.ph58
  %47 = getelementptr inbounds nuw i8, ptr %44, i64 4
  %48 = load i32, ptr %47, align 4
  %.not54 = icmp eq i32 %48, 0
  br i1 %.not54, label %60, label %49

49:                                               ; preds = %46
  %50 = add i32 %45, %3
  %51 = load i32, ptr @ett_mbim_pair_list, align 4
  %52 = add nuw i32 %.14957, 1
  %53 = call ptr (ptr, ptr, i32, i32, i32, ptr, ptr, ...) @proto_tree_add_subtree_format(ptr noundef %2, ptr noundef %0, i32 noundef %50, i32 noundef %48, i32 noundef %51, ptr noundef null, ptr noundef nonnull @.str.2581, i32 noundef %52) #10
  %54 = load i32, ptr %44, align 4
  %55 = add i32 %54, %3
  %56 = load i32, ptr @hf_mbim_ms_sar_config_state_sar_antenna_index, align 4
  %57 = call ptr @proto_tree_add_item(ptr noundef %53, i32 noundef %56, ptr noundef %0, i32 noundef %55, i32 noundef 4, i32 noundef -2147483648) #10
  %.reass = add i32 %54, %10
  %58 = load i32, ptr @hf_mbim_ms_sar_config_state_sar_backoff_index, align 4
  %59 = call ptr @proto_tree_add_item(ptr noundef %53, i32 noundef %58, ptr noundef %0, i32 noundef %.reass, i32 noundef 4, i32 noundef -2147483648) #10
  br label %60

60:                                               ; preds = %.lr.ph58, %46, %49
  %61 = add nuw i32 %.14957, 1
  %62 = load i32, ptr %6, align 4
  %63 = icmp ult i32 %61, %62
  br i1 %63, label %.lr.ph58, label %.loopexit, !llvm.loop !30

.loopexit:                                        ; preds = %60, %22, %.preheader, %18
  ret void
}